target datalayout = "e-m:e-p270:32:32-p271:32:32-p272:64:64-i64:64-i128:128-f80:128-n8:16:32:64-S128"
target triple = "x86_64-pc-linux-gnu"

%struct.custom_opt_s = type { i32, %union.anon.5 }
%union.anon.5 = type { %struct.nflx_custom_opt_data }
%struct.nflx_custom_opt_data = type { i32, i64, ptr, i32 }
%struct.generic_custom_opt_data = type { i64, ptr }
%struct.pcapng_option_header = type { i16, i16 }

; Function Attrs: nounwind uwtable
define internal i32 @put_nrb_option(ptr noundef %0, i32 noundef %1, i32 noundef %2, ptr noundef %3, ptr noundef %4) #0 {
  %6 = alloca ptr, align 8
  %7 = alloca i32, align 4
  %8 = alloca i32, align 4
  %9 = alloca ptr, align 8
  %10 = alloca ptr, align 8
  %11 = alloca ptr, align 8
  %12 = alloca i32, align 4
  %13 = alloca %struct.pcapng_option_header, align 2
  %14 = alloca i32, align 4
  store ptr %0, ptr %6, align 8
  store i32 %1, ptr %7, align 4
  store i32 %2, ptr %8, align 4
  store ptr %3, ptr %9, align 8
  store ptr %4, ptr %10, align 8
  %15 = load ptr, ptr %10, align 8
  store ptr %15, ptr %11, align 8
  store i32 0, ptr %12, align 4
  %16 = load i32, ptr %7, align 4
  switch i32 %16, label %164 [
    i32 1, label %17
    i32 2, label %17
    i32 2988, label %67
    i32 2989, label %67
    i32 3, label %132
    i32 4, label %148
  ]

17:                                               ; preds = %5, %5
  %18 = load ptr, ptr %9, align 8
  %19 = load ptr, ptr %18, align 8
  %20 = call i64 @strlen(ptr noundef %19) #12
  %21 = trunc i64 %20 to i32
  %22 = and i32 %21, 65535
  store i32 %22, ptr %12, align 4
  %23 = load i32, ptr %7, align 4
  %24 = trunc i32 %23 to i16
  %25 = getelementptr inbounds %struct.pcapng_option_header, ptr %13, i32 0, i32 0
  store i16 %24, ptr %25, align 2
  %26 = load i32, ptr %12, align 4
  %27 = trunc i32 %26 to i16
  %28 = getelementptr inbounds %struct.pcapng_option_header, ptr %13, i32 0, i32 1
  store i16 %27, ptr %28, align 2
  %29 = load ptr, ptr %11, align 8
  %30 = load ptr, ptr %29, align 8
  call void @llvm.memcpy.p0.p0.i64(ptr align 1 %30, ptr align 2 %13, i64 4, i1 false)
  %31 = load ptr, ptr %11, align 8
  %32 = load ptr, ptr %31, align 8
  %33 = getelementptr i8, ptr %32, i64 4
  store ptr %33, ptr %31, align 8
  %34 = load ptr, ptr %11, align 8
  %35 = load ptr, ptr %34, align 8
  %36 = load ptr, ptr %9, align 8
  %37 = load ptr, ptr %36, align 8
  %38 = load i32, ptr %12, align 4
  %39 = zext i32 %38 to i64
  call void @llvm.memcpy.p0.p0.i64(ptr align 1 %35, ptr align 1 %37, i64 %39, i1 false)
  %40 = load i32, ptr %12, align 4
  %41 = load ptr, ptr %11, align 8
  %42 = load ptr, ptr %41, align 8
  %43 = zext i32 %40 to i64
  %44 = getelementptr i8, ptr %42, i64 %43
  store ptr %44, ptr %41, align 8
  %45 = load i32, ptr %12, align 4
  %46 = urem i32 %45, 4
  %47 = icmp ne i32 %46, 0
  br i1 %47, label %48, label %52

48:                                               ; preds = %17
  %49 = load i32, ptr %12, align 4
  %50 = urem i32 %49, 4
  %51 = sub i32 4, %50
  store i32 %51, ptr %14, align 4
  br label %53

52:                                               ; preds = %17
  store i32 0, ptr %14, align 4
  br label %53

53:                                               ; preds = %52, %48
  %54 = load i32, ptr %14, align 4
  %55 = icmp ne i32 %54, 0
  br i1 %55, label %56, label %66

56:                                               ; preds = %53
  %57 = load ptr, ptr %11, align 8
  %58 = load ptr, ptr %57, align 8
  %59 = load i32, ptr %14, align 4
  %60 = zext i32 %59 to i64
  call void @llvm.memset.p0.i64(ptr align 1 %58, i8 0, i64 %60, i1 false)
  %61 = load i32, ptr %14, align 4
  %62 = load ptr, ptr %11, align 8
  %63 = load ptr, ptr %62, align 8
  %64 = zext i32 %61 to i64
  %65 = getelementptr i8, ptr %63, i64 %64
  store ptr %65, ptr %62, align 8
  br label %66

66:                                               ; preds = %56, %53
  br label %165

67:                                               ; preds = %5, %5
  %68 = load ptr, ptr %9, align 8
  %69 = getelementptr inbounds %struct.custom_opt_s, ptr %68, i32 0, i32 1
  %70 = getelementptr inbounds %struct.generic_custom_opt_data, ptr %69, i32 0, i32 0
  %71 = load i64, ptr %70, align 8
  %72 = add i64 %71, 4
  %73 = trunc i64 %72 to i32
  %74 = and i32 %73, 65535
  store i32 %74, ptr %12, align 4
  %75 = load i32, ptr %7, align 4
  %76 = trunc i32 %75 to i16
  %77 = getelementptr inbounds %struct.pcapng_option_header, ptr %13, i32 0, i32 0
  store i16 %76, ptr %77, align 2
  %78 = load i32, ptr %12, align 4
  %79 = trunc i32 %78 to i16
  %80 = getelementptr inbounds %struct.pcapng_option_header, ptr %13, i32 0, i32 1
  store i16 %79, ptr %80, align 2
  %81 = load ptr, ptr %11, align 8
  %82 = load ptr, ptr %81, align 8
  call void @llvm.memcpy.p0.p0.i64(ptr align 1 %82, ptr align 2 %13, i64 4, i1 false)
  %83 = load ptr, ptr %11, align 8
  %84 = load ptr, ptr %83, align 8
  %85 = getelementptr i8, ptr %84, i64 4
  store ptr %85, ptr %83, align 8
  %86 = load ptr, ptr %11, align 8
  %87 = load ptr, ptr %86, align 8
  %88 = load ptr, ptr %9, align 8
  %89 = getelementptr inbounds %struct.custom_opt_s, ptr %88, i32 0, i32 0
  call void @llvm.memcpy.p0.p0.i64(ptr align 1 %87, ptr align 8 %89, i64 4, i1 false)
  %90 = load ptr, ptr %11, align 8
  %91 = load ptr, ptr %90, align 8
  %92 = getelementptr i8, ptr %91, i64 4
  store ptr %92, ptr %90, align 8
  %93 = load ptr, ptr %11, align 8
  %94 = load ptr, ptr %93, align 8
  %95 = load ptr, ptr %9, align 8
  %96 = getelementptr inbounds %struct.custom_opt_s, ptr %95, i32 0, i32 1
  %97 = getelementptr inbounds %struct.generic_custom_opt_data, ptr %96, i32 0, i32 1
  %98 = load ptr, ptr %97, align 8
  %99 = load ptr, ptr %9, align 8
  %100 = getelementptr inbounds %struct.custom_opt_s, ptr %99, i32 0, i32 1
  %101 = getelementptr inbounds %struct.generic_custom_opt_data, ptr %100, i32 0, i32 0
  %102 = load i64, ptr %101, align 8
  call void @llvm.memcpy.p0.p0.i64(ptr align 1 %94, ptr align 1 %98, i64 %102, i1 false)
  %103 = load ptr, ptr %9, align 8
  %104 = getelementptr inbounds %struct.custom_opt_s, ptr %103, i32 0, i32 1
  %105 = getelementptr inbounds %struct.generic_custom_opt_data, ptr %104, i32 0, i32 0
  %106 = load i64, ptr %105, align 8
  %107 = load ptr, ptr %11, align 8
  %108 = load ptr, ptr %107, align 8
  %109 = getelementptr i8, ptr %108, i64 %106
  store ptr %109, ptr %107, align 8
  %110 = load i32, ptr %12, align 4
  %111 = urem i32 %110, 4
  %112 = icmp ne i32 %111, 0
  br i1 %112, label %113, label %117

113:                                              ; preds = %67
  %114 = load i32, ptr %12, align 4
  %115 = urem i32 %114, 4
  %116 = sub i32 4, %115
  store i32 %116, ptr %14, align 4
  br label %118

117:                                              ; preds = %67
  store i32 0, ptr %14, align 4
  br label %118

118:                                              ; preds = %117, %113
  %119 = load i32, ptr %14, align 4
  %120 = icmp ne i32 %119, 0
  br i1 %120, label %121, label %131

121:                                              ; preds = %118
  %122 = load ptr, ptr %11, align 8
  %123 = load ptr, ptr %122, align 8
  %124 = load i32, ptr %14, align 4
  %125 = zext i32 %124 to i64
  call void @llvm.memset.p0.i64(ptr align 1 %123, i8 0, i64 %125, i1 false)
  %126 = load i32, ptr %14, align 4
  %127 = load ptr, ptr %11, align 8
  %128 = load ptr, ptr %127, align 8
  %129 = zext i32 %126 to i64
  %130 = getelementptr i8, ptr %128, i64 %129
  store ptr %130, ptr %127, align 8
  br label %131

131:                                              ; preds = %121, %118
  br label %165

132:                                              ; preds = %5
  %133 = load i32, ptr %7, align 4
  %134 = trunc i32 %133 to i16
  %135 = getelementptr inbounds %struct.pcapng_option_header, ptr %13, i32 0, i32 0
  store i16 %134, ptr %135, align 2
  %136 = getelementptr inbounds %struct.pcapng_option_header, ptr %13, i32 0, i32 1
  store i16 4, ptr %136, align 2
  %137 = load ptr, ptr %11, align 8
  %138 = load ptr, ptr %137, align 8
  call void @llvm.memcpy.p0.p0.i64(ptr align 1 %138, ptr align 2 %13, i64 4, i1 false)
  %139 = load ptr, ptr %11, align 8
  %140 = load ptr, ptr %139, align 8
  %141 = getelementptr i8, ptr %140, i64 4
  store ptr %141, ptr %139, align 8
  %142 = load ptr, ptr %11, align 8
  %143 = load ptr, ptr %142, align 8
  %144 = load ptr, ptr %9, align 8
  call void @llvm.memcpy.p0.p0.i64(ptr align 1 %143, ptr align 8 %144, i64 4, i1 false)
  %145 = load ptr, ptr %11, align 8
  %146 = load ptr, ptr %145, align 8
  %147 = getelementptr i8, ptr %146, i64 4
  store ptr %147, ptr %145, align 8
  br label %165

148:                                              ; preds = %5
  %149 = load i32, ptr %7, align 4
  %150 = trunc i32 %149 to i16
  %151 = getelementptr inbounds %struct.pcapng_option_header, ptr %13, i32 0, i32 0
  store i16 %150, ptr %151, align 2
  %152 = getelementptr inbounds %struct.pcapng_option_header, ptr %13, i32 0, i32 1
  store i16 16, ptr %152, align 2
  %153 = load ptr, ptr %11, align 8
  %154 = load ptr, ptr %153, align 8
  call void @llvm.memcpy.p0.p0.i64(ptr align 1 %154, ptr align 2 %13, i64 4, i1 false)
  %155 = load ptr, ptr %11, align 8
  %156 = load ptr, ptr %155, align 8
  %157 = getelementptr i8, ptr %156, i64 4
  store ptr %157, ptr %155, align 8
  %158 = load ptr, ptr %11, align 8
  %159 = load ptr, ptr %158, align 8
  %160 = load ptr, ptr %9, align 8
  call void @llvm.memcpy.p0.p0.i64(ptr align 1 %159, ptr align 8 %160, i64 16, i1 false)
  %161 = load ptr, ptr %11, align 8
  %162 = load ptr, ptr %161, align 8
  %163 = getelementptr i8, ptr %162, i64 16
  store ptr %163, ptr %161, align 8
  br label %165

164:                                              ; preds = %5
  br label %165

165:                                              ; preds = %164, %148, %132, %131, %66
  ret i32 1
}