; Function Attrs: mustprogress nofree nounwind willreturn memory(readwrite, inaccessiblemem: none) uwtable
define internal noundef i32 @put_nrb_option(ptr readnone captures(none) %0, i32 noundef %1, i32 %2, ptr noundef readonly captures(none) %3, ptr noundef captures(none) %4) #10 {
  switch i32 %1, label %57 [
    i32 1, label %6
    i32 2, label %6
    i32 2988, label %23
    i32 2989, label %23
    i32 3, label %46
    i32 4, label %51
  ]

6:                                                ; preds = %5, %5
  %7 = load ptr, ptr %3, align 8
  %8 = tail call i64 @strlen(ptr noundef nonnull dereferenceable(1) %7) #19
  %9 = trunc i64 %8 to i32
  %10 = trunc i32 %1 to i16
  %11 = trunc i64 %8 to i16
  %12 = load ptr, ptr %4, align 8
  store i16 %10, ptr %12, align 1
  %.sroa.8.0..sroa_idx = getelementptr inbounds nuw i8, ptr %12, i64 2
  store i16 %11, ptr %.sroa.8.0..sroa_idx, align 1
  %13 = load ptr, ptr %4, align 8
  %14 = getelementptr i8, ptr %13, i64 4
  store ptr %14, ptr %4, align 8
  %15 = load ptr, ptr %3, align 8
  %16 = and i64 %8, 65535
  tail call void @llvm.memcpy.p0.p0.i64(ptr align 1 %14, ptr align 1 %15, i64 %16, i1 false)
  %17 = load ptr, ptr %4, align 8
  %18 = getelementptr i8, ptr %17, i64 %16
  store ptr %18, ptr %4, align 8
  %19 = and i32 %9, 3
  %.not64 = icmp eq i32 %19, 0
  br i1 %.not64, label %57, label %20

20:                                               ; preds = %6
  %21 = sub nuw nsw i32 4, %19
  %22 = zext nneg i32 %21 to i64
  tail call void @llvm.memset.p0.i64(ptr noundef nonnull align 1 dereferenceable(1) %18, i8 0, i64 %22, i1 false)
  br label %.sink.split

23:                                               ; preds = %5, %5
  %24 = getelementptr inbounds nuw i8, ptr %3, i64 8
  %25 = load i64, ptr %24, align 8
  %26 = trunc i64 %25 to i32
  %27 = trunc i32 %1 to i16
  %28 = trunc i64 %25 to i16
  %29 = add i16 %28, 4
  %30 = load ptr, ptr %4, align 8
  store i16 %27, ptr %30, align 1
  %.sroa.8.0..sroa_idx9 = getelementptr inbounds nuw i8, ptr %30, i64 2
  store i16 %29, ptr %.sroa.8.0..sroa_idx9, align 1
  %31 = load ptr, ptr %4, align 8
  %32 = getelementptr i8, ptr %31, i64 4
  store ptr %32, ptr %4, align 8
  %33 = load i32, ptr %3, align 8
  store i32 %33, ptr %32, align 1
  %34 = load ptr, ptr %4, align 8
  %35 = getelementptr i8, ptr %34, i64 4
  store ptr %35, ptr %4, align 8
  %36 = getelementptr inbounds nuw i8, ptr %3, i64 16
  %37 = load ptr, ptr %36, align 8
  %38 = load i64, ptr %24, align 8
  tail call void @llvm.memcpy.p0.p0.i64(ptr align 1 %35, ptr align 1 %37, i64 %38, i1 false)
  %39 = load i64, ptr %24, align 8
  %40 = load ptr, ptr %4, align 8
  %41 = getelementptr i8, ptr %40, i64 %39
  store ptr %41, ptr %4, align 8
  %42 = and i32 %26, 3
  %.not = icmp eq i32 %42, 0
  br i1 %.not, label %57, label %43

43:                                               ; preds = %23
  %44 = sub nuw nsw i32 4, %42
  %45 = zext nneg i32 %44 to i64
  tail call void @llvm.memset.p0.i64(ptr noundef nonnull align 1 dereferenceable(1) %41, i8 0, i64 %45, i1 false)
  br label %.sink.split

46:                                               ; preds = %5
  %47 = load ptr, ptr %4, align 8
  store i16 3, ptr %47, align 1
  %.sroa.8.0..sroa_idx11 = getelementptr inbounds nuw i8, ptr %47, i64 2
  store i16 4, ptr %.sroa.8.0..sroa_idx11, align 1
  %48 = load ptr, ptr %4, align 8
  %49 = getelementptr i8, ptr %48, i64 4
  store ptr %49, ptr %4, align 8
  %50 = load i32, ptr %3, align 8
  store i32 %50, ptr %49, align 1
  br label %.sink.split

51:                                               ; preds = %5
  %52 = load ptr, ptr %4, align 8
  store i16 4, ptr %52, align 1
  %.sroa.8.0..sroa_idx13 = getelementptr inbounds nuw i8, ptr %52, i64 2
  store i16 16, ptr %.sroa.8.0..sroa_idx13, align 1
  %53 = load ptr, ptr %4, align 8
  %54 = getelementptr i8, ptr %53, i64 4
  store ptr %54, ptr %4, align 8
  tail call void @llvm.memcpy.p0.p0.i64(ptr noundef nonnull align 1 dereferenceable(16) %54, ptr noundef nonnull align 8 dereferenceable(16) %3, i64 16, i1 false)
  br label %.sink.split

.sink.split:                                      ; preds = %46, %51, %20, %43
  %.sink67 = phi i64 [ %45, %43 ], [ %22, %20 ], [ 16, %51 ], [ 4, %46 ]
  %55 = load ptr, ptr %4, align 8
  %56 = getelementptr i8, ptr %55, i64 %.sink67
  store ptr %56, ptr %4, align 8
  br label %57

57:                                               ; preds = %.sink.split, %5, %23, %6
  ret i32 1
}